target datalayout = "e-m:e-p270:32:32-p271:32:32-p272:64:64-i64:64-i128:128-f80:128-n8:16:32:64-S128"
target triple = "x86_64-pc-linux-gnu"

%struct.H5FS_iter_ud_t = type { ptr, ptr, ptr }

@.str.3 = private unnamed_addr constant [105 x i8] c"generated/home/dtcxzyw/WorkSpace/Projects/compilers/llvm-opt-benchmark/bench/hdf5/hdf5/src/H5FSsection.c\00", align 1
@H5E_FSPACE_g = external global i64, align 8
@H5E_BADITER_g = external global i64, align 8
@__func__.H5FS__iterate_sect_cb = private unnamed_addr constant [22 x i8] c"H5FS__iterate_sect_cb\00", align 1
@.str.54 = private unnamed_addr constant [26 x i8] c"iteration callback failed\00", align 1

; Function Attrs: nounwind uwtable
define internal i32 @H5FS__iterate_sect_cb(ptr noundef %0, ptr noundef %1, ptr noundef %2) #0 {
  %4 = alloca ptr, align 8
  %5 = alloca ptr, align 8
  %6 = alloca ptr, align 8
  %7 = alloca ptr, align 8
  %8 = alloca ptr, align 8
  %9 = alloca i32, align 4
  %10 = alloca i8, align 1
  store ptr %0, ptr %4, align 8
  store ptr %1, ptr %5, align 8
  store ptr %2, ptr %6, align 8
  %11 = load ptr, ptr %4, align 8
  store ptr %11, ptr %7, align 8
  %12 = load ptr, ptr %6, align 8
  store ptr %12, ptr %8, align 8
  store i32 0, ptr %9, align 4
  store i8 0, ptr %10, align 1
  %13 = load ptr, ptr %8, align 8
  %14 = getelementptr inbounds %struct.H5FS_iter_ud_t, ptr %13, i32 0, i32 1
  %15 = load ptr, ptr %14, align 8
  %16 = load ptr, ptr %7, align 8
  %17 = load ptr, ptr %8, align 8
  %18 = getelementptr inbounds %struct.H5FS_iter_ud_t, ptr %17, i32 0, i32 2
  %19 = load ptr, ptr %18, align 8
  %20 = call i32 %15(ptr noundef %16, ptr noundef %19)
  %21 = icmp slt i32 %20, 0
  br i1 %21, label %22, label %37

22:                                               ; preds = %3
  br label %23

23:                                               ; preds = %22
  br label %24

24:                                               ; preds = %23
  br label %25

25:                                               ; preds = %24
  %26 = load i64, ptr @H5E_FSPACE_g, align 8
  %27 = load i64, ptr @H5E_BADITER_g, align 8
  %28 = call i32 (ptr, ptr, i32, i64, i64, ptr, ...) @H5E_printf_stack(ptr noundef @.str.3, ptr noundef @__func__.H5FS__iterate_sect_cb, i32 noundef 1793, i64 noundef %26, i64 noundef %27, ptr noundef @.str.54)
  br label %29

29:                                               ; preds = %25
  store i8 1, ptr %10, align 1
  %30 = load i8, ptr %10, align 1
  %31 = trunc i8 %30 to i1
  %32 = zext i1 %31 to i8
  store i8 %32, ptr %10, align 1
  br label %33

33:                                               ; preds = %29
  br label %34

34:                                               ; preds = %33
  store i32 -1, ptr %9, align 4
  br label %38

35:                                               ; No predecessors!
  br label %36

36:                                               ; preds = %35
  br label %37

37:                                               ; preds = %36, %3
  br label %38

38:                                               ; preds = %37, %34
  %39 = load i32, ptr %9, align 4
  ret i32 %39
}