; Function Attrs: nounwind uwtable
define internal range(i32 -1, 1) i32 @H5FS__iterate_sect_cb(ptr noundef %0, ptr nocapture readnone %1, ptr nocapture noundef readonly %2) #0 {
  %4 = getelementptr inbounds i8, ptr %2, i64 8
  %5 = load ptr, ptr %4, align 8
  %6 = getelementptr inbounds i8, ptr %2, i64 16
  %7 = load ptr, ptr %6, align 8
  %8 = tail call i32 %5(ptr noundef %0, ptr noundef %7) #6
  %9 = icmp slt i32 %8, 0
  br i1 %9, label %10, label %14

10:                                               ; preds = %3
  %11 = load i64, ptr @H5E_FSPACE_g, align 8
  %12 = load i64, ptr @H5E_BADITER_g, align 8
  %13 = tail call i32 (ptr, ptr, i32, i64, i64, ptr, ...) @H5E_printf_stack(ptr noundef nonnull @.str.3, ptr noundef nonnull @__func__.H5FS__iterate_sect_cb, i32 noundef 1793, i64 noundef %11, i64 noundef %12, ptr noundef nonnull @.str.54) #6
  br label %14

14:                                               ; preds = %3, %10
  %.0 = phi i32 [ -1, %10 ], [ 0, %3 ]
  ret i32 %.0
}